EXPORTS
    _ZN2sf11ThreadLocal8setValueEPv @1
    _ZN2sf11ThreadLocalC1EPv @2
    _ZN2sf11ThreadLocalC2EPv @3
    _ZN2sf11ThreadLocalD1Ev @4
    _ZN2sf11ThreadLocalD2Ev @5
    _ZN2sf12microsecondsEx @6
    _ZN2sf12millisecondsEi @7
    _ZN2sf15FileInputStream4openERKNSt7__cxx1112basic_stringIcSt11char_traitsIcESaIcEEE @8
    _ZN2sf15FileInputStream4readEPvx @9
    _ZN2sf15FileInputStream4seekEx @10
    _ZN2sf15FileInputStream4tellEv @11
    _ZN2sf15FileInputStream7getSizeEv @12
    _ZN2sf15FileInputStreamC1Ev @13
    _ZN2sf15FileInputStreamC2Ev @14
    _ZN2sf15FileInputStreamD0Ev @15
    _ZN2sf15FileInputStreamD1Ev @16
    _ZN2sf15FileInputStreamD2Ev @17
    _ZN2sf17MemoryInputStream4openEPKvy @18
    _ZN2sf17MemoryInputStream4readEPvx @19
    _ZN2sf17MemoryInputStream4seekEx @20
    _ZN2sf17MemoryInputStream4tellEv @21
    _ZN2sf17MemoryInputStream7getSizeEv @22
    _ZN2sf17MemoryInputStreamC1Ev @23
    _ZN2sf17MemoryInputStreamC2Ev @24
    _ZN2sf3errEv @25
    _ZN2sf4LockC1ERNS_5MutexE @26
    _ZN2sf4LockC2ERNS_5MutexE @27
    _ZN2sf4LockD1Ev @28
    _ZN2sf4LockD2Ev @29
    _ZN2sf4Time4ZeroE @30 DATA
    _ZN2sf4TimeC1Ev @31
    _ZN2sf4TimeC1Ex @32
    _ZN2sf4TimeC2Ev @33
    _ZN2sf4TimeC2Ex @34
    _ZN2sf5Clock7restartEv @35
    _ZN2sf5ClockC1Ev @36
    _ZN2sf5ClockC2Ev @37
    _ZN2sf5Mutex4lockEv @38
    _ZN2sf5Mutex6unlockEv @39
    _ZN2sf5MutexC1Ev @40
    _ZN2sf5MutexC2Ev @41
    _ZN2sf5MutexD1Ev @42
    _ZN2sf5MutexD2Ev @43
    _ZN2sf5sleepENS_4TimeE @44
    _ZN2sf6String10InvalidPosE @45 DATA
    _ZN2sf6String3endB5cxx11Ev @46
    _ZN2sf6String5beginB5cxx11Ev @47
    _ZN2sf6String5clearEv @48
    _ZN2sf6String5eraseEyy @49
    _ZN2sf6String6insertEyRKS0_ @50
    _ZN2sf6String7replaceERKS0_S2_ @51
    _ZN2sf6String7replaceEyyRKS0_ @52
    _ZN2sf6StringC1EPKcRKSt6locale @53
    _ZN2sf6StringC1EPKj @54
    _ZN2sf6StringC1EPKw @55
    _ZN2sf6StringC1ERKNSt7__cxx1112basic_stringIcSt11char_traitsIcESaIcEEERKSt6locale @56
    _ZN2sf6StringC1ERKNSt7__cxx1112basic_stringIjSt11char_traitsIjESaIjEEE @57
    _ZN2sf6StringC1ERKNSt7__cxx1112basic_stringIwSt11char_traitsIwESaIwEEE @58
    _ZN2sf6StringC1ERKS0_ @59
    _ZN2sf6StringC1EcRKSt6locale @60
    _ZN2sf6StringC1Ej @61
    _ZN2sf6StringC1Ev @62
    _ZN2sf6StringC1Ew @63
    _ZN2sf6StringC2EPKcRKSt6locale @64
    _ZN2sf6StringC2EPKj @65
    _ZN2sf6StringC2EPKw @66
    _ZN2sf6StringC2ERKNSt7__cxx1112basic_stringIcSt11char_traitsIcESaIcEEERKSt6locale @67
    _ZN2sf6StringC2ERKNSt7__cxx1112basic_stringIjSt11char_traitsIjESaIjEEE @68
    _ZN2sf6StringC2ERKNSt7__cxx1112basic_stringIwSt11char_traitsIwESaIwEEE @69
    _ZN2sf6StringC2ERKS0_ @70
    _ZN2sf6StringC2EcRKSt6locale @71
    _ZN2sf6StringC2Ej @72
    _ZN2sf6StringC2Ev @73
    _ZN2sf6StringC2Ew @74
    _ZN2sf6StringaSERKS0_ @75
    _ZN2sf6StringixEy @76
    _ZN2sf6StringpLERKS0_ @77
    _ZN2sf6Thread3runEv @78
    _ZN2sf6Thread4waitEv @79
    _ZN2sf6Thread6launchEv @80
    _ZN2sf6Thread9terminateEv @81
    _ZN2sf6ThreadD1Ev @82
    _ZN2sf6ThreadD2Ev @83
    _ZN2sf7secondsEf @84
    _ZN2sfdVERNS_4TimeEf @85
    _ZN2sfdVERNS_4TimeEx @86
    _ZN2sfdvENS_4TimeES0_ @87
    _ZN2sfdvENS_4TimeEf @88
    _ZN2sfdvENS_4TimeEx @89
    _ZN2sfeqENS_4TimeES0_ @90
    _ZN2sfeqERKNS_6StringES2_ @91
    _ZN2sfgeENS_4TimeES0_ @92
    _ZN2sfgeERKNS_6StringES2_ @93
    _ZN2sfgtENS_4TimeES0_ @94
    _ZN2sfgtERKNS_6StringES2_ @95
    _ZN2sfleENS_4TimeES0_ @96
    _ZN2sfleERKNS_6StringES2_ @97
    _ZN2sfltENS_4TimeES0_ @98
    _ZN2sfltERKNS_6StringES2_ @99
    _ZN2sfmIERNS_4TimeES0_ @100
    _ZN2sfmLERNS_4TimeEf @101
    _ZN2sfmLERNS_4TimeEx @102
    _ZN2sfmiENS_4TimeES0_ @103
    _ZN2sfmlENS_4TimeEf @104
    _ZN2sfmlENS_4TimeEx @105
    _ZN2sfmlEfNS_4TimeE @106
    _ZN2sfmlExNS_4TimeE @107
    _ZN2sfneENS_4TimeES0_ @108
    _ZN2sfneERKNS_6StringES2_ @109
    _ZN2sfngENS_4TimeE @110
    _ZN2sfpLERNS_4TimeES0_ @111
    _ZN2sfplENS_4TimeES0_ @112
    _ZN2sfplERKNS_6StringES2_ @113
    _ZN2sfrMERNS_4TimeES0_ @114
    _ZN2sfrmENS_4TimeES0_ @115
    _ZNK2sf11ThreadLocal8getValueEv @116
    _ZNK2sf4Time14asMicrosecondsEv @117
    _ZNK2sf4Time14asMillisecondsEv @118
    _ZNK2sf4Time9asSecondsEv @119
    _ZNK2sf5Clock14getElapsedTimeEv @120
    _ZNK2sf6String12toAnsiStringB5cxx11ERKSt6locale @121
    _ZNK2sf6String12toWideStringB5cxx11Ev @122
    _ZNK2sf6String3endB5cxx11Ev @123
    _ZNK2sf6String4findERKS0_y @124
    _ZNK2sf6String5beginB5cxx11Ev @125
    _ZNK2sf6String6toUtf8B5cxx11Ev @126
    _ZNK2sf6String7getDataEv @127
    _ZNK2sf6String7getSizeEv @128
    _ZNK2sf6String7isEmptyEv @129
    _ZNK2sf6String7toUtf16B5cxx11Ev @130
    _ZNK2sf6String7toUtf32B5cxx11Ev @131
    _ZNK2sf6String9substringEyy @132
    _ZNK2sf6StringcvNSt7__cxx1112basic_stringIcSt11char_traitsIcESaIcEEEEv @133
    _ZNK2sf6StringcvNSt7__cxx1112basic_stringIwSt11char_traitsIwESaIwEEEEv @134
    _ZNK2sf6StringixEy @135
    _ZTIN2sf11InputStreamE @136 DATA
    _ZTIN2sf15FileInputStreamE @137 DATA
    _ZTIN2sf17MemoryInputStreamE @138 DATA
    _ZTVN2sf11InputStreamE @139 DATA
    _ZTVN2sf15FileInputStreamE @140 DATA
    _ZTVN2sf17MemoryInputStreamE @141 DATA
