EXPORTS
    _ZN2sf10GlResource20TransientContextLockC1Ev @1
    _ZN2sf10GlResource20TransientContextLockC2Ev @2
    _ZN2sf10GlResource20TransientContextLockD1Ev @3
    _ZN2sf10GlResource20TransientContextLockD2Ev @4
    _ZN2sf10GlResource30registerContextDestroyCallbackEPFvPvES1_ @5
    _ZN2sf10GlResourceC1Ev @6
    _ZN2sf10GlResourceC2Ev @7
    _ZN2sf10GlResourceD1Ev @8
    _ZN2sf10GlResourceD2Ev @9
    _ZN2sf5Mouse11getPositionERKNS_6WindowE @10
    _ZN2sf5Mouse11getPositionEv @11
    _ZN2sf5Mouse11setPositionERKNS_7Vector2IiEE @12
    _ZN2sf5Mouse11setPositionERKNS_7Vector2IiEERKNS_6WindowE @13
    _ZN2sf5Mouse15isButtonPressedENS0_6ButtonE @14
    _ZN2sf5Touch11getPositionEj @15
    _ZN2sf5Touch11getPositionEjRKNS_6WindowE @16
    _ZN2sf5Touch6isDownEj @17
    _ZN2sf6Cursor14loadFromPixelsEPKhNS_7Vector2IjEES4_ @18
    _ZN2sf6Cursor14loadFromSystemENS0_4TypeE @19
    _ZN2sf6CursorC1Ev @20
    _ZN2sf6CursorC2Ev @21
    _ZN2sf6CursorD1Ev @22
    _ZN2sf6CursorD2Ev @23
    _ZN2sf6Sensor10setEnabledENS0_4TypeEb @24
    _ZN2sf6Sensor11isAvailableENS0_4TypeE @25
    _ZN2sf6Sensor8getValueENS0_4TypeE @26
    _ZN2sf6Window10initializeEv @27
    _ZN2sf6Window10setVisibleEb @28
    _ZN2sf6Window11filterEventERKNS_5EventE @29
    _ZN2sf6Window11setPositionERKNS_7Vector2IiEE @30
    _ZN2sf6Window12requestFocusEv @31
    _ZN2sf6Window14setMouseCursorERKNS_6CursorE @32
    _ZN2sf6Window17setFramerateLimitEj @33
    _ZN2sf6Window19setKeyRepeatEnabledEb @34
    _ZN2sf6Window20setJoystickThresholdEf @35
    _ZN2sf6Window21setMouseCursorGrabbedEb @36
    _ZN2sf6Window21setMouseCursorVisibleEb @37
    _ZN2sf6Window22setVerticalSyncEnabledEb @38
    _ZN2sf6Window5closeEv @39
    _ZN2sf6Window6createENS_9VideoModeERKNS_6StringEjRKNS_15ContextSettingsE @40
    _ZN2sf6Window6createEP6HWND__RKNS_15ContextSettingsE @41
    _ZN2sf6Window7displayEv @42
    _ZN2sf6Window7setIconEjjPKh @43
    _ZN2sf6Window7setSizeERKNS_7Vector2IjEE @44
    _ZN2sf6Window8onCreateEv @45
    _ZN2sf6Window8onResizeEv @46
    _ZN2sf6Window8setTitleERKNS_6StringE @47
    _ZN2sf6Window9pollEventERNS_5EventE @48
    _ZN2sf6Window9waitEventERNS_5EventE @49
    _ZN2sf6WindowC1ENS_9VideoModeERKNS_6StringEjRKNS_15ContextSettingsE @50
    _ZN2sf6WindowC1EP6HWND__RKNS_15ContextSettingsE @51
    _ZN2sf6WindowC1Ev @52
    _ZN2sf6WindowC2ENS_9VideoModeERKNS_6StringEjRKNS_15ContextSettingsE @53
    _ZN2sf6WindowC2EP6HWND__RKNS_15ContextSettingsE @54
    _ZN2sf6WindowC2Ev @55
    _ZN2sf6WindowD0Ev @56
    _ZN2sf6WindowD1Ev @57
    _ZN2sf6WindowD2Ev @58
    _ZN2sf7Context11getFunctionEPKc @59
    _ZN2sf7Context16getActiveContextEv @60
    _ZN2sf7Context18getActiveContextIdEv @61
    _ZN2sf7Context20isExtensionAvailableEPKc @62
    _ZN2sf7Context9setActiveEb @63
    _ZN2sf7ContextC1ERKNS_15ContextSettingsEjj @64
    _ZN2sf7ContextC1Ev @65
    _ZN2sf7ContextC2ERKNS_15ContextSettingsEjj @66
    _ZN2sf7ContextC2Ev @67
    _ZN2sf7ContextD1Ev @68
    _ZN2sf7ContextD2Ev @69
    _ZN2sf8Joystick11isConnectedEj @70
    _ZN2sf8Joystick14IdentificationC1Ev @71
    _ZN2sf8Joystick14IdentificationC2Ev @72
    _ZN2sf8Joystick14getButtonCountEj @73
    _ZN2sf8Joystick15getAxisPositionEjNS0_4AxisE @74
    _ZN2sf8Joystick15isButtonPressedEjj @75
    _ZN2sf8Joystick17getIdentificationEj @76
    _ZN2sf8Joystick6updateEv @77
    _ZN2sf8Joystick7hasAxisEjNS0_4AxisE @78
    _ZN2sf8Keyboard12isKeyPressedENS0_3KeyE @79
    _ZN2sf8Keyboard25setVirtualKeyboardVisibleEb @80
    _ZN2sf9Clipboard9getStringEv @81
    _ZN2sf9Clipboard9setStringERKNS_6StringE @82
    _ZN2sf9VideoMode14getDesktopModeEv @83
    _ZN2sf9VideoMode18getFullscreenModesEv @84
    _ZN2sf9VideoModeC1Ejjj @85
    _ZN2sf9VideoModeC1Ev @86
    _ZN2sf9VideoModeC2Ejjj @87
    _ZN2sf9VideoModeC2Ev @88
    _ZN2sfeqERKNS_9VideoModeES2_ @89
    _ZN2sfgeERKNS_9VideoModeES2_ @90
    _ZN2sfgtERKNS_9VideoModeES2_ @91
    _ZN2sfleERKNS_9VideoModeES2_ @92
    _ZN2sfltERKNS_9VideoModeES2_ @93
    _ZN2sfneERKNS_9VideoModeES2_ @94
    _ZNK2sf6Cursor7getImplEv @95
    _ZNK2sf6Window11getPositionEv @96
    _ZNK2sf6Window11getSettingsEv @97
    _ZNK2sf6Window15getSystemHandleEv @98
    _ZNK2sf6Window6isOpenEv @99
    _ZNK2sf6Window7getSizeEv @100
    _ZNK2sf6Window8hasFocusEv @101
    _ZNK2sf6Window9setActiveEb @102
    _ZNK2sf7Context11getSettingsEv @103
    _ZNK2sf9VideoMode7isValidEv @104
    _ZTIN2sf6WindowE @105 DATA
    _ZTVN2sf6WindowE @106 DATA
