EXPORTS
    _ZN2sf11TcpListener5closeEv @1
    _ZN2sf11TcpListener6acceptERNS_9TcpSocketE @2
    _ZN2sf11TcpListener6listenEtRKNS_9IpAddressE @3
    _ZN2sf11TcpListenerC1Ev @4
    _ZN2sf11TcpListenerC2Ev @5
    _ZN2sf14SocketSelector3addERNS_6SocketE @6
    _ZN2sf14SocketSelector4waitENS_4TimeE @7
    _ZN2sf14SocketSelector5clearEv @8
    _ZN2sf14SocketSelector6removeERNS_6SocketE @9
    _ZN2sf14SocketSelectorC1ERKS0_ @10
    _ZN2sf14SocketSelectorC1Ev @11
    _ZN2sf14SocketSelectorC2ERKS0_ @12
    _ZN2sf14SocketSelectorC2Ev @13
    _ZN2sf14SocketSelectorD1Ev @14
    _ZN2sf14SocketSelectorD2Ev @15
    _ZN2sf14SocketSelectoraSERKS0_ @16
    _ZN2sf3Ftp10deleteFileERKNSt7__cxx1112basic_stringIcSt11char_traitsIcESaIcEEE @17
    _ZN2sf3Ftp10disconnectEv @18
    _ZN2sf3Ftp10renameFileERKNSt7__cxx1112basic_stringIcSt11char_traitsIcESaIcEEES8_ @19
    _ZN2sf3Ftp11getResponseEv @20
    _ZN2sf3Ftp11sendCommandERKNSt7__cxx1112basic_stringIcSt11char_traitsIcESaIcEEES8_ @21
    _ZN2sf3Ftp15ListingResponseC1ERKNS0_8ResponseERKNSt7__cxx1112basic_stringIcSt11char_traitsIcESaIcEEE @22
    _ZN2sf3Ftp15ListingResponseC2ERKNS0_8ResponseERKNSt7__cxx1112basic_stringIcSt11char_traitsIcESaIcEEE @23
    _ZN2sf3Ftp15changeDirectoryERKNSt7__cxx1112basic_stringIcSt11char_traitsIcESaIcEEE @24
    _ZN2sf3Ftp15createDirectoryERKNSt7__cxx1112basic_stringIcSt11char_traitsIcESaIcEEE @25
    _ZN2sf3Ftp15deleteDirectoryERKNSt7__cxx1112basic_stringIcSt11char_traitsIcESaIcEEE @26
    _ZN2sf3Ftp15parentDirectoryEv @27
    _ZN2sf3Ftp17DirectoryResponseC1ERKNS0_8ResponseE @28
    _ZN2sf3Ftp17DirectoryResponseC2ERKNS0_8ResponseE @29
    _ZN2sf3Ftp19getDirectoryListingERKNSt7__cxx1112basic_stringIcSt11char_traitsIcESaIcEEE @30
    _ZN2sf3Ftp19getWorkingDirectoryEv @31
    _ZN2sf3Ftp5loginERKNSt7__cxx1112basic_stringIcSt11char_traitsIcESaIcEEES8_ @32
    _ZN2sf3Ftp5loginEv @33
    _ZN2sf3Ftp6uploadERKNSt7__cxx1112basic_stringIcSt11char_traitsIcESaIcEEES8_NS0_12TransferModeEb @34
    _ZN2sf3Ftp7connectERKNS_9IpAddressEtNS_4TimeE @35
    _ZN2sf3Ftp8ResponseC1ENS1_6StatusERKNSt7__cxx1112basic_stringIcSt11char_traitsIcESaIcEEE @36
    _ZN2sf3Ftp8ResponseC2ENS1_6StatusERKNSt7__cxx1112basic_stringIcSt11char_traitsIcESaIcEEE @37
    _ZN2sf3Ftp8downloadERKNSt7__cxx1112basic_stringIcSt11char_traitsIcESaIcEEES8_NS0_12TransferModeE @38
    _ZN2sf3Ftp9keepAliveEv @39
    _ZN2sf3FtpD1Ev @40
    _ZN2sf3FtpD2Ev @41
    _ZN2sf4Http11sendRequestERKNS0_7RequestENS_4TimeE @42
    _ZN2sf4Http7Request14setHttpVersionEjj @43
    _ZN2sf4Http7Request6setUriERKNSt7__cxx1112basic_stringIcSt11char_traitsIcESaIcEEE @44
    _ZN2sf4Http7Request7setBodyERKNSt7__cxx1112basic_stringIcSt11char_traitsIcESaIcEEE @45
    _ZN2sf4Http7Request8setFieldERKNSt7__cxx1112basic_stringIcSt11char_traitsIcESaIcEEES9_ @46
    _ZN2sf4Http7Request9setMethodENS1_6MethodE @47
    _ZN2sf4Http7RequestC1ERKNSt7__cxx1112basic_stringIcSt11char_traitsIcESaIcEEENS1_6MethodES9_ @48
    _ZN2sf4Http7RequestC2ERKNSt7__cxx1112basic_stringIcSt11char_traitsIcESaIcEEENS1_6MethodES9_ @49
    _ZN2sf4Http7setHostERKNSt7__cxx1112basic_stringIcSt11char_traitsIcESaIcEEEt @50
    _ZN2sf4Http8Response11parseFieldsERSi @51
    _ZN2sf4Http8Response5parseERKNSt7__cxx1112basic_stringIcSt11char_traitsIcESaIcEEE @52
    _ZN2sf4Http8ResponseC1Ev @53
    _ZN2sf4Http8ResponseC2Ev @54
    _ZN2sf4HttpC1ERKNSt7__cxx1112basic_stringIcSt11char_traitsIcESaIcEEEt @55
    _ZN2sf4HttpC1Ev @56
    _ZN2sf4HttpC2ERKNSt7__cxx1112basic_stringIcSt11char_traitsIcESaIcEEEt @57
    _ZN2sf4HttpC2Ev @58
    _ZN2sf6Packet5clearEv @59
    _ZN2sf6Packet6appendEPKvy @60
    _ZN2sf6Packet6onSendERy @61
    _ZN2sf6Packet9checkSizeEy @62
    _ZN2sf6Packet9onReceiveEPKvy @63
    _ZN2sf6PacketC1Ev @64
    _ZN2sf6PacketC2Ev @65
    _ZN2sf6PacketD0Ev @66
    _ZN2sf6PacketD1Ev @67
    _ZN2sf6PacketD2Ev @68
    _ZN2sf6PacketlsEPKc @69
    _ZN2sf6PacketlsEPKw @70
    _ZN2sf6PacketlsERKNS_6StringE @71
    _ZN2sf6PacketlsERKNSt7__cxx1112basic_stringIcSt11char_traitsIcESaIcEEE @72
    _ZN2sf6PacketlsERKNSt7__cxx1112basic_stringIwSt11char_traitsIwESaIwEEE @73
    _ZN2sf6PacketlsEa @74
    _ZN2sf6PacketlsEb @75
    _ZN2sf6PacketlsEd @76
    _ZN2sf6PacketlsEf @77
    _ZN2sf6PacketlsEh @78
    _ZN2sf6PacketlsEi @79
    _ZN2sf6PacketlsEj @80
    _ZN2sf6PacketlsEs @81
    _ZN2sf6PacketlsEt @82
    _ZN2sf6PacketlsEx @83
    _ZN2sf6PacketlsEy @84
    _ZN2sf6PacketrsEPc @85
    _ZN2sf6PacketrsEPw @86
    _ZN2sf6PacketrsERNS_6StringE @87
    _ZN2sf6PacketrsERNSt7__cxx1112basic_stringIcSt11char_traitsIcESaIcEEE @88
    _ZN2sf6PacketrsERNSt7__cxx1112basic_stringIwSt11char_traitsIwESaIwEEE @89
    _ZN2sf6PacketrsERa @90
    _ZN2sf6PacketrsERb @91
    _ZN2sf6PacketrsERd @92
    _ZN2sf6PacketrsERf @93
    _ZN2sf6PacketrsERh @94
    _ZN2sf6PacketrsERi @95
    _ZN2sf6PacketrsERj @96
    _ZN2sf6PacketrsERs @97
    _ZN2sf6PacketrsERt @98
    _ZN2sf6PacketrsERx @99
    _ZN2sf6PacketrsERy @100
    _ZN2sf6Socket11setBlockingEb @101
    _ZN2sf6Socket5closeEv @102
    _ZN2sf6Socket6createEv @103
    _ZN2sf6Socket6createEy @104
    _ZN2sf6SocketC1ENS0_4TypeE @105
    _ZN2sf6SocketC2ENS0_4TypeE @106
    _ZN2sf6SocketD0Ev @107
    _ZN2sf6SocketD1Ev @108
    _ZN2sf6SocketD2Ev @109
    _ZN2sf9IpAddress15getLocalAddressEv @110
    _ZN2sf9IpAddress16getPublicAddressENS_4TimeE @111
    _ZN2sf9IpAddress3AnyE @112 DATA
    _ZN2sf9IpAddress4NoneE @113 DATA
    _ZN2sf9IpAddress7resolveERKNSt7__cxx1112basic_stringIcSt11char_traitsIcESaIcEEE @114
    _ZN2sf9IpAddress9BroadcastE @115 DATA
    _ZN2sf9IpAddress9LocalHostE @116 DATA
    _ZN2sf9IpAddressC1EPKc @117
    _ZN2sf9IpAddressC1ERKNSt7__cxx1112basic_stringIcSt11char_traitsIcESaIcEEE @118
    _ZN2sf9IpAddressC1Ehhhh @119
    _ZN2sf9IpAddressC1Ej @120
    _ZN2sf9IpAddressC1Ev @121
    _ZN2sf9IpAddressC2EPKc @122
    _ZN2sf9IpAddressC2ERKNSt7__cxx1112basic_stringIcSt11char_traitsIcESaIcEEE @123
    _ZN2sf9IpAddressC2Ehhhh @124
    _ZN2sf9IpAddressC2Ej @125
    _ZN2sf9IpAddressC2Ev @126
    _ZN2sf9TcpSocket10disconnectEv @127
    _ZN2sf9TcpSocket4sendEPKvy @128
    _ZN2sf9TcpSocket4sendEPKvyRy @129
    _ZN2sf9TcpSocket4sendERNS_6PacketE @130
    _ZN2sf9TcpSocket7connectERKNS_9IpAddressEtNS_4TimeE @131
    _ZN2sf9TcpSocket7receiveEPvyRy @132
    _ZN2sf9TcpSocket7receiveERNS_6PacketE @133
    _ZN2sf9TcpSocketC1Ev @134
    _ZN2sf9TcpSocketC2Ev @135
    _ZN2sf9UdpSocket4bindEtRKNS_9IpAddressE @136
    _ZN2sf9UdpSocket4sendEPKvyRKNS_9IpAddressEt @137
    _ZN2sf9UdpSocket4sendERNS_6PacketERKNS_9IpAddressEt @138
    _ZN2sf9UdpSocket6unbindEv @139
    _ZN2sf9UdpSocket7receiveEPvyRyRNS_9IpAddressERt @140
    _ZN2sf9UdpSocket7receiveERNS_6PacketERNS_9IpAddressERt @141
    _ZN2sf9UdpSocketC1Ev @142
    _ZN2sf9UdpSocketC2Ev @143
    _ZN2sfeqERKNS_9IpAddressES2_ @144
    _ZN2sfgeERKNS_9IpAddressES2_ @145
    _ZN2sfgtERKNS_9IpAddressES2_ @146
    _ZN2sfleERKNS_9IpAddressES2_ @147
    _ZN2sflsERSoRKNS_9IpAddressE @148
    _ZN2sfltERKNS_9IpAddressES2_ @149
    _ZN2sfneERKNS_9IpAddressES2_ @150
    _ZN2sfrsERSiRNS_9IpAddressE @151
    _ZNK2sf11TcpListener12getLocalPortEv @152
    _ZNK2sf14SocketSelector7isReadyERNS_6SocketE @153
    _ZNK2sf3Ftp15ListingResponse10getListingB5cxx11Ev @154
    _ZNK2sf3Ftp17DirectoryResponse12getDirectoryB5cxx11Ev @155
    _ZNK2sf3Ftp8Response10getMessageB5cxx11Ev @156
    _ZNK2sf3Ftp8Response4isOkEv @157
    _ZNK2sf3Ftp8Response9getStatusEv @158
    _ZNK2sf4Http7Request7prepareB5cxx11Ev @159
    _ZNK2sf4Http7Request8hasFieldERKNSt7__cxx1112basic_stringIcSt11char_traitsIcESaIcEEE @160
    _ZNK2sf4Http8Response19getMajorHttpVersionEv @161
    _ZNK2sf4Http8Response19getMinorHttpVersionEv @162
    _ZNK2sf4Http8Response7getBodyB5cxx11Ev @163
    _ZNK2sf4Http8Response8getFieldERKNSt7__cxx1112basic_stringIcSt11char_traitsIcESaIcEEE @164
    _ZNK2sf4Http8Response9getStatusEv @165
    _ZNK2sf6Packet11endOfPacketEv @166
    _ZNK2sf6Packet11getDataSizeEv @167
    _ZNK2sf6Packet7getDataEv @168
    _ZNK2sf6PacketcvMS0_FbyEEv @169
    _ZNK2sf6Socket10isBlockingEv @170
    _ZNK2sf6Socket9getHandleEv @171
    _ZNK2sf9IpAddress8toStringB5cxx11Ev @172
    _ZNK2sf9IpAddress9toIntegerEv @173
    _ZNK2sf9TcpSocket12getLocalPortEv @174
    _ZNK2sf9TcpSocket13getRemotePortEv @175
    _ZNK2sf9TcpSocket16getRemoteAddressEv @176
    _ZNK2sf9UdpSocket12getLocalPortEv @177
    _ZTIN2sf11TcpListenerE @178 DATA
    _ZTIN2sf6PacketE @179 DATA
    _ZTIN2sf6SocketE @180 DATA
    _ZTIN2sf9TcpSocketE @181 DATA
    _ZTIN2sf9UdpSocketE @182 DATA
    _ZTVN2sf11TcpListenerE @183 DATA
    _ZTVN2sf6PacketE @184 DATA
    _ZTVN2sf6SocketE @185 DATA
    _ZTVN2sf9TcpSocketE @186 DATA
    _ZTVN2sf9UdpSocketE @187 DATA
