EXPORTS
    _ZN2sf10BlendAlphaE @1 DATA
    _ZN2sf11CircleShape13setPointCountEy @2
    _ZN2sf11CircleShape9setRadiusEf @3
    _ZN2sf11CircleShapeC1Efy @4
    _ZN2sf11CircleShapeC2Efy @5
    _ZN2sf11ConvexShape13setPointCountEy @6
    _ZN2sf11ConvexShape8setPointEyRKNS_7Vector2IfEE @7
    _ZN2sf11ConvexShapeC1Ey @8
    _ZN2sf11ConvexShapeC2Ey @9
    _ZN2sf11VertexArray16setPrimitiveTypeENS_13PrimitiveTypeE @10
    _ZN2sf11VertexArray5clearEv @11
    _ZN2sf11VertexArray6appendERKNS_6VertexE @12
    _ZN2sf11VertexArray6resizeEy @13
    _ZN2sf11VertexArrayC1ENS_13PrimitiveTypeEy @14
    _ZN2sf11VertexArrayC1Ev @15
    _ZN2sf11VertexArrayC2ENS_13PrimitiveTypeEy @16
    _ZN2sf11VertexArrayC2Ev @17
    _ZN2sf11VertexArrayixEy @18
    _ZN2sf12RenderStates7DefaultE @19 DATA
    _ZN2sf12RenderStatesC1EPKNS_6ShaderE @20
    _ZN2sf12RenderStatesC1EPKNS_7TextureE @21
    _ZN2sf12RenderStatesC1ERKNS_9BlendModeE @22
    _ZN2sf12RenderStatesC1ERKNS_9BlendModeERKNS_9TransformEPKNS_7TextureEPKNS_6ShaderE @23
    _ZN2sf12RenderStatesC1ERKNS_9TransformE @24
    _ZN2sf12RenderStatesC1Ev @25
    _ZN2sf12RenderStatesC2EPKNS_6ShaderE @26
    _ZN2sf12RenderStatesC2EPKNS_7TextureE @27
    _ZN2sf12RenderStatesC2ERKNS_9BlendModeE @28
    _ZN2sf12RenderStatesC2ERKNS_9BlendModeERKNS_9TransformEPKNS_7TextureEPKNS_6ShaderE @29
    _ZN2sf12RenderStatesC2ERKNS_9TransformE @30
    _ZN2sf12RenderStatesC2Ev @31
    _ZN2sf12RenderTarget10initializeEv @32
    _ZN2sf12RenderTarget11applyShaderEPKNS_6ShaderE @33
    _ZN2sf12RenderTarget11cleanupDrawERKNS_12RenderStatesE @34
    _ZN2sf12RenderTarget11popGLStatesEv @35
    _ZN2sf12RenderTarget12applyTextureEPKNS_7TextureE @36
    _ZN2sf12RenderTarget12pushGLStatesEv @37
    _ZN2sf12RenderTarget13resetGLStatesEv @38
    _ZN2sf12RenderTarget14applyBlendModeERKNS_9BlendModeE @39
    _ZN2sf12RenderTarget14applyTransformERKNS_9TransformE @40
    _ZN2sf12RenderTarget14drawPrimitivesENS_13PrimitiveTypeEyy @41
    _ZN2sf12RenderTarget16applyCurrentViewEv @42
    _ZN2sf12RenderTarget4drawEPKNS_6VertexEyNS_13PrimitiveTypeERKNS_12RenderStatesE @43
    _ZN2sf12RenderTarget4drawERKNS_12VertexBufferERKNS_12RenderStatesE @44
    _ZN2sf12RenderTarget4drawERKNS_12VertexBufferEyyRKNS_12RenderStatesE @45
    _ZN2sf12RenderTarget4drawERKNS_8DrawableERKNS_12RenderStatesE @46
    _ZN2sf12RenderTarget5clearERKNS_5ColorE @47
    _ZN2sf12RenderTarget7setViewERKNS_4ViewE @48
    _ZN2sf12RenderTarget9setActiveEb @49
    _ZN2sf12RenderTarget9setupDrawEbRKNS_12RenderStatesE @50
    _ZN2sf12RenderTargetC1Ev @51
    _ZN2sf12RenderTargetC2Ev @52
    _ZN2sf12RenderTargetD0Ev @53
    _ZN2sf12RenderTargetD1Ev @54
    _ZN2sf12RenderTargetD2Ev @55
    _ZN2sf12RenderWindow8onCreateEv @56
    _ZN2sf12RenderWindow8onResizeEv @57
    _ZN2sf12RenderWindow9setActiveEb @58
    _ZN2sf12RenderWindowC1ENS_9VideoModeERKNS_6StringEjRKNS_15ContextSettingsE @59
    _ZN2sf12RenderWindowC1EP6HWND__RKNS_15ContextSettingsE @60
    _ZN2sf12RenderWindowC1Ev @61
    _ZN2sf12RenderWindowC2ENS_9VideoModeERKNS_6StringEjRKNS_15ContextSettingsE @62
    _ZN2sf12RenderWindowC2EP6HWND__RKNS_15ContextSettingsE @63
    _ZN2sf12RenderWindowC2Ev @64
    _ZN2sf12RenderWindowD0Ev @65
    _ZN2sf12RenderWindowD1Ev @66
    _ZN2sf12RenderWindowD2Ev @67
    _ZN2sf12VertexBuffer11isAvailableEv @68
    _ZN2sf12VertexBuffer16setPrimitiveTypeENS_13PrimitiveTypeE @69
    _ZN2sf12VertexBuffer4bindEPKS0_ @70
    _ZN2sf12VertexBuffer4swapERS0_ @71
    _ZN2sf12VertexBuffer6createEy @72
    _ZN2sf12VertexBuffer6updateEPKNS_6VertexE @73
    _ZN2sf12VertexBuffer6updateEPKNS_6VertexEyj @74
    _ZN2sf12VertexBuffer6updateERKS0_ @75
    _ZN2sf12VertexBuffer8setUsageENS0_5UsageE @76
    _ZN2sf12VertexBufferC1ENS0_5UsageE @77
    _ZN2sf12VertexBufferC1ENS_13PrimitiveTypeE @78
    _ZN2sf12VertexBufferC1ENS_13PrimitiveTypeENS0_5UsageE @79
    _ZN2sf12VertexBufferC1ERKS0_ @80
    _ZN2sf12VertexBufferC1Ev @81
    _ZN2sf12VertexBufferC2ENS0_5UsageE @82
    _ZN2sf12VertexBufferC2ENS_13PrimitiveTypeE @83
    _ZN2sf12VertexBufferC2ENS_13PrimitiveTypeENS0_5UsageE @84
    _ZN2sf12VertexBufferC2ERKS0_ @85
    _ZN2sf12VertexBufferC2Ev @86
    _ZN2sf12VertexBufferD0Ev @87
    _ZN2sf12VertexBufferD1Ev @88
    _ZN2sf12VertexBufferD2Ev @89
    _ZN2sf12VertexBufferaSERKS0_ @90
    _ZN2sf13BlendMultiplyE @91 DATA
    _ZN2sf13RenderTexture11setRepeatedEb @92
    _ZN2sf13RenderTexture14generateMipmapEv @93
    _ZN2sf13RenderTexture27getMaximumAntialiasingLevelEv @94
    _ZN2sf13RenderTexture6createEjjRKNS_15ContextSettingsE @95
    _ZN2sf13RenderTexture6createEjjb @96
    _ZN2sf13RenderTexture7displayEv @97
    _ZN2sf13RenderTexture9setActiveEb @98
    _ZN2sf13RenderTexture9setSmoothEb @99
    _ZN2sf13RenderTextureC1Ev @100
    _ZN2sf13RenderTextureC2Ev @101
    _ZN2sf13RenderTextureD0Ev @102
    _ZN2sf13RenderTextureD1Ev @103
    _ZN2sf13RenderTextureD2Ev @104
    _ZN2sf13Transformable11setPositionERKNS_7Vector2IfEE @105
    _ZN2sf13Transformable11setPositionEff @106
    _ZN2sf13Transformable11setRotationEf @107
    _ZN2sf13Transformable4moveERKNS_7Vector2IfEE @108
    _ZN2sf13Transformable4moveEff @109
    _ZN2sf13Transformable5scaleERKNS_7Vector2IfEE @110
    _ZN2sf13Transformable5scaleEff @111
    _ZN2sf13Transformable6rotateEf @112
    _ZN2sf13Transformable8setScaleERKNS_7Vector2IfEE @113
    _ZN2sf13Transformable8setScaleEff @114
    _ZN2sf13Transformable9setOriginERKNS_7Vector2IfEE @115
    _ZN2sf13Transformable9setOriginEff @116
    _ZN2sf13TransformableC1Ev @117
    _ZN2sf13TransformableC2Ev @118
    _ZN2sf13TransformableD0Ev @119
    _ZN2sf13TransformableD1Ev @120
    _ZN2sf13TransformableD2Ev @121
    _ZN2sf14RectangleShape7setSizeERKNS_7Vector2IfEE @122
    _ZN2sf14RectangleShapeC1ERKNS_7Vector2IfEE @123
    _ZN2sf14RectangleShapeC2ERKNS_7Vector2IfEE @124
    _ZN2sf4Font12loadFromFileERKNSt7__cxx1112basic_stringIcSt11char_traitsIcESaIcEEE @125
    _ZN2sf4Font14loadFromMemoryEPKvy @126
    _ZN2sf4Font14loadFromStreamERNS_11InputStreamE @127
    _ZN2sf4Font7cleanupEv @128
    _ZN2sf4FontC1ERKS0_ @129
    _ZN2sf4FontC1Ev @130
    _ZN2sf4FontC2ERKS0_ @131
    _ZN2sf4FontC2Ev @132
    _ZN2sf4FontD1Ev @133
    _ZN2sf4FontD2Ev @134
    _ZN2sf4FontaSERKS0_ @135
    _ZN2sf4Text12setFillColorERKNS_5ColorE @136
    _ZN2sf4Text14setLineSpacingEf @137
    _ZN2sf4Text15setOutlineColorERKNS_5ColorE @138
    _ZN2sf4Text16setCharacterSizeEj @139
    _ZN2sf4Text16setLetterSpacingEf @140
    _ZN2sf4Text19setOutlineThicknessEf @141
    _ZN2sf4Text7setFontERKNS_4FontE @142
    _ZN2sf4Text8setColorERKNS_5ColorE @143
    _ZN2sf4Text8setStyleEj @144
    _ZN2sf4Text9setStringERKNS_6StringE @145
    _ZN2sf4TextC1ERKNS_6StringERKNS_4FontEj @146
    _ZN2sf4TextC1Ev @147
    _ZN2sf4TextC2ERKNS_6StringERKNS_4FontEj @148
    _ZN2sf4TextC2Ev @149
    _ZN2sf4View11setRotationEf @150
    _ZN2sf4View11setViewportERKNS_4RectIfEE @151
    _ZN2sf4View4moveERKNS_7Vector2IfEE @152
    _ZN2sf4View4moveEff @153
    _ZN2sf4View4zoomEf @154
    _ZN2sf4View5resetERKNS_4RectIfEE @155
    _ZN2sf4View6rotateEf @156
    _ZN2sf4View7setSizeERKNS_7Vector2IfEE @157
    _ZN2sf4View7setSizeEff @158
    _ZN2sf4View9setCenterERKNS_7Vector2IfEE @159
    _ZN2sf4View9setCenterEff @160
    _ZN2sf4ViewC1ERKNS_4RectIfEE @161
    _ZN2sf4ViewC1ERKNS_7Vector2IfEES4_ @162
    _ZN2sf4ViewC1Ev @163
    _ZN2sf4ViewC2ERKNS_4RectIfEE @164
    _ZN2sf4ViewC2ERKNS_7Vector2IfEES4_ @165
    _ZN2sf4ViewC2Ev @166
    _ZN2sf4priv10copyMatrixEPKfyPf @167
    _ZN2sf4priv10copyMatrixERKNS_9TransformERNS0_6MatrixILy3ELy3EEE @168
    _ZN2sf4priv10copyMatrixERKNS_9TransformERNS0_6MatrixILy4ELy4EEE @169
    _ZN2sf4priv10copyVectorERKNS_5ColorERNS0_7Vector4IfEE @170
    _ZN2sf4priv10copyVectorERKNS_5ColorERNS0_7Vector4IiEE @171
    _ZN2sf5Color11TransparentE @172 DATA
    _ZN2sf5Color3RedE @173 DATA
    _ZN2sf5Color4BlueE @174 DATA
    _ZN2sf5Color4CyanE @175 DATA
    _ZN2sf5Color5BlackE @176 DATA
    _ZN2sf5Color5GreenE @177 DATA
    _ZN2sf5Color5WhiteE @178 DATA
    _ZN2sf5Color6YellowE @179 DATA
    _ZN2sf5Color7MagentaE @180 DATA
    _ZN2sf5ColorC1Ehhhh @181
    _ZN2sf5ColorC1Ej @182
    _ZN2sf5ColorC1Ev @183
    _ZN2sf5ColorC2Ehhhh @184
    _ZN2sf5ColorC2Ej @185
    _ZN2sf5ColorC2Ev @186
    _ZN2sf5Image12loadFromFileERKNSt7__cxx1112basic_stringIcSt11char_traitsIcESaIcEEE @187
    _ZN2sf5Image14flipVerticallyEv @188
    _ZN2sf5Image14loadFromMemoryEPKvy @189
    _ZN2sf5Image14loadFromStreamERNS_11InputStreamE @190
    _ZN2sf5Image16flipHorizontallyEv @191
    _ZN2sf5Image19createMaskFromColorERKNS_5ColorEh @192
    _ZN2sf5Image4copyERKS0_jjRKNS_4RectIiEEb @193
    _ZN2sf5Image6createEjjPKh @194
    _ZN2sf5Image6createEjjRKNS_5ColorE @195
    _ZN2sf5Image8setPixelEjjRKNS_5ColorE @196
    _ZN2sf5ImageC1Ev @197
    _ZN2sf5ImageC2Ev @198
    _ZN2sf5ImageD1Ev @199
    _ZN2sf5ImageD2Ev @200
    _ZN2sf5Shape10setTextureEPKNS_7TextureEb @201
    _ZN2sf5Shape12setFillColorERKNS_5ColorE @202
    _ZN2sf5Shape13updateOutlineEv @203
    _ZN2sf5Shape14setTextureRectERKNS_4RectIiEE @204
    _ZN2sf5Shape15setOutlineColorERKNS_5ColorE @205
    _ZN2sf5Shape15updateTexCoordsEv @206
    _ZN2sf5Shape16updateFillColorsEv @207
    _ZN2sf5Shape19setOutlineThicknessEf @208
    _ZN2sf5Shape19updateOutlineColorsEv @209
    _ZN2sf5Shape6updateEv @210
    _ZN2sf5ShapeC1Ev @211
    _ZN2sf5ShapeC2Ev @212
    _ZN2sf5ShapeD0Ev @213
    _ZN2sf5ShapeD1Ev @214
    _ZN2sf5ShapeD2Ev @215
    _ZN2sf6Shader10setUniformERKNSt7__cxx1112basic_stringIcSt11char_traitsIcESaIcEEENS0_18CurrentTextureTypeE @216
    _ZN2sf6Shader10setUniformERKNSt7__cxx1112basic_stringIcSt11char_traitsIcESaIcEEERKNS_4priv6MatrixILy3ELy3EEE @217
    _ZN2sf6Shader10setUniformERKNSt7__cxx1112basic_stringIcSt11char_traitsIcESaIcEEERKNS_4priv6MatrixILy4ELy4EEE @218
    _ZN2sf6Shader10setUniformERKNSt7__cxx1112basic_stringIcSt11char_traitsIcESaIcEEERKNS_4priv7Vector4IbEE @219
    _ZN2sf6Shader10setUniformERKNSt7__cxx1112basic_stringIcSt11char_traitsIcESaIcEEERKNS_4priv7Vector4IfEE @220
    _ZN2sf6Shader10setUniformERKNSt7__cxx1112basic_stringIcSt11char_traitsIcESaIcEEERKNS_4priv7Vector4IiEE @221
    _ZN2sf6Shader10setUniformERKNSt7__cxx1112basic_stringIcSt11char_traitsIcESaIcEEERKNS_7TextureE @222
    _ZN2sf6Shader10setUniformERKNSt7__cxx1112basic_stringIcSt11char_traitsIcESaIcEEERKNS_7Vector2IbEE @223
    _ZN2sf6Shader10setUniformERKNSt7__cxx1112basic_stringIcSt11char_traitsIcESaIcEEERKNS_7Vector2IfEE @224
    _ZN2sf6Shader10setUniformERKNSt7__cxx1112basic_stringIcSt11char_traitsIcESaIcEEERKNS_7Vector2IiEE @225
    _ZN2sf6Shader10setUniformERKNSt7__cxx1112basic_stringIcSt11char_traitsIcESaIcEEERKNS_7Vector3IbEE @226
    _ZN2sf6Shader10setUniformERKNSt7__cxx1112basic_stringIcSt11char_traitsIcESaIcEEERKNS_7Vector3IfEE @227
    _ZN2sf6Shader10setUniformERKNSt7__cxx1112basic_stringIcSt11char_traitsIcESaIcEEERKNS_7Vector3IiEE @228
    _ZN2sf6Shader10setUniformERKNSt7__cxx1112basic_stringIcSt11char_traitsIcESaIcEEEb @229
    _ZN2sf6Shader10setUniformERKNSt7__cxx1112basic_stringIcSt11char_traitsIcESaIcEEEf @230
    _ZN2sf6Shader10setUniformERKNSt7__cxx1112basic_stringIcSt11char_traitsIcESaIcEEEi @231
    _ZN2sf6Shader11isAvailableEv @232
    _ZN2sf6Shader12loadFromFileERKNSt7__cxx1112basic_stringIcSt11char_traitsIcESaIcEEENS0_4TypeE @233
    _ZN2sf6Shader12loadFromFileERKNSt7__cxx1112basic_stringIcSt11char_traitsIcESaIcEEES8_ @234
    _ZN2sf6Shader12loadFromFileERKNSt7__cxx1112basic_stringIcSt11char_traitsIcESaIcEEES8_S8_ @235
    _ZN2sf6Shader12setParameterERKNSt7__cxx1112basic_stringIcSt11char_traitsIcESaIcEEENS0_18CurrentTextureTypeE @236
    _ZN2sf6Shader12setParameterERKNSt7__cxx1112basic_stringIcSt11char_traitsIcESaIcEEERKNS_5ColorE @237
    _ZN2sf6Shader12setParameterERKNSt7__cxx1112basic_stringIcSt11char_traitsIcESaIcEEERKNS_7TextureE @238
    _ZN2sf6Shader12setParameterERKNSt7__cxx1112basic_stringIcSt11char_traitsIcESaIcEEERKNS_7Vector2IfEE @239
    _ZN2sf6Shader12setParameterERKNSt7__cxx1112basic_stringIcSt11char_traitsIcESaIcEEERKNS_7Vector3IfEE @240
    _ZN2sf6Shader12setParameterERKNSt7__cxx1112basic_stringIcSt11char_traitsIcESaIcEEERKNS_9TransformE @241
    _ZN2sf6Shader12setParameterERKNSt7__cxx1112basic_stringIcSt11char_traitsIcESaIcEEEf @242
    _ZN2sf6Shader12setParameterERKNSt7__cxx1112basic_stringIcSt11char_traitsIcESaIcEEEff @243
    _ZN2sf6Shader12setParameterERKNSt7__cxx1112basic_stringIcSt11char_traitsIcESaIcEEEfff @244
    _ZN2sf6Shader12setParameterERKNSt7__cxx1112basic_stringIcSt11char_traitsIcESaIcEEEffff @245
    _ZN2sf6Shader14CurrentTextureE @246 DATA
    _ZN2sf6Shader14loadFromMemoryERKNSt7__cxx1112basic_stringIcSt11char_traitsIcESaIcEEENS0_4TypeE @247
    _ZN2sf6Shader14loadFromMemoryERKNSt7__cxx1112basic_stringIcSt11char_traitsIcESaIcEEES8_ @248
    _ZN2sf6Shader14loadFromMemoryERKNSt7__cxx1112basic_stringIcSt11char_traitsIcESaIcEEES8_S8_ @249
    _ZN2sf6Shader14loadFromStreamERNS_11InputStreamENS0_4TypeE @250
    _ZN2sf6Shader14loadFromStreamERNS_11InputStreamES2_ @251
    _ZN2sf6Shader14loadFromStreamERNS_11InputStreamES2_S2_ @252
    _ZN2sf6Shader15setUniformArrayERKNSt7__cxx1112basic_stringIcSt11char_traitsIcESaIcEEEPKNS_4priv6MatrixILy3ELy3EEEy @253
    _ZN2sf6Shader15setUniformArrayERKNSt7__cxx1112basic_stringIcSt11char_traitsIcESaIcEEEPKNS_4priv6MatrixILy4ELy4EEEy @254
    _ZN2sf6Shader15setUniformArrayERKNSt7__cxx1112basic_stringIcSt11char_traitsIcESaIcEEEPKNS_4priv7Vector4IfEEy @255
    _ZN2sf6Shader15setUniformArrayERKNSt7__cxx1112basic_stringIcSt11char_traitsIcESaIcEEEPKNS_7Vector2IfEEy @256
    _ZN2sf6Shader15setUniformArrayERKNSt7__cxx1112basic_stringIcSt11char_traitsIcESaIcEEEPKNS_7Vector3IfEEy @257
    _ZN2sf6Shader15setUniformArrayERKNSt7__cxx1112basic_stringIcSt11char_traitsIcESaIcEEEPKfy @258
    _ZN2sf6Shader18getUniformLocationERKNSt7__cxx1112basic_stringIcSt11char_traitsIcESaIcEEE @259
    _ZN2sf6Shader19isGeometryAvailableEv @260
    _ZN2sf6Shader4bindEPKS0_ @261
    _ZN2sf6Shader7compileEPKcS2_S2_ @262
    _ZN2sf6ShaderC1Ev @263
    _ZN2sf6ShaderC2Ev @264
    _ZN2sf6ShaderD1Ev @265
    _ZN2sf6ShaderD2Ev @266
    _ZN2sf6Sprite10setTextureERKNS_7TextureEb @267
    _ZN2sf6Sprite14setTextureRectERKNS_4RectIiEE @268
    _ZN2sf6Sprite15updatePositionsEv @269
    _ZN2sf6Sprite15updateTexCoordsEv @270
    _ZN2sf6Sprite8setColorERKNS_5ColorE @271
    _ZN2sf6SpriteC1ERKNS_7TextureE @272
    _ZN2sf6SpriteC1ERKNS_7TextureERKNS_4RectIiEE @273
    _ZN2sf6SpriteC1Ev @274
    _ZN2sf6SpriteC2ERKNS_7TextureE @275
    _ZN2sf6SpriteC2ERKNS_7TextureERKNS_4RectIiEE @276
    _ZN2sf6SpriteC2Ev @277
    _ZN2sf6VertexC1ERKNS_7Vector2IfEE @278
    _ZN2sf6VertexC1ERKNS_7Vector2IfEERKNS_5ColorE @279
    _ZN2sf6VertexC1ERKNS_7Vector2IfEERKNS_5ColorES4_ @280
    _ZN2sf6VertexC1ERKNS_7Vector2IfEES4_ @281
    _ZN2sf6VertexC1Ev @282
    _ZN2sf6VertexC2ERKNS_7Vector2IfEE @283
    _ZN2sf6VertexC2ERKNS_7Vector2IfEERKNS_5ColorE @284
    _ZN2sf6VertexC2ERKNS_7Vector2IfEERKNS_5ColorES4_ @285
    _ZN2sf6VertexC2ERKNS_7Vector2IfEES4_ @286
    _ZN2sf6VertexC2Ev @287
    _ZN2sf7Texture11setRepeatedEb @288
    _ZN2sf7Texture12getValidSizeEj @289
    _ZN2sf7Texture12loadFromFileERKNSt7__cxx1112basic_stringIcSt11char_traitsIcESaIcEEERKNS_4RectIiEE @290
    _ZN2sf7Texture13loadFromImageERKNS_5ImageERKNS_4RectIiEE @291
    _ZN2sf7Texture14generateMipmapEv @292
    _ZN2sf7Texture14getMaximumSizeEv @293
    _ZN2sf7Texture14loadFromMemoryEPKvyRKNS_4RectIiEE @294
    _ZN2sf7Texture14loadFromStreamERNS_11InputStreamERKNS_4RectIiEE @295
    _ZN2sf7Texture16invalidateMipmapEv @296
    _ZN2sf7Texture4bindEPKS0_NS0_14CoordinateTypeE @297
    _ZN2sf7Texture4swapERS0_ @298
    _ZN2sf7Texture6createEjj @299
    _ZN2sf7Texture6updateEPKh @300
    _ZN2sf7Texture6updateEPKhjjjj @301
    _ZN2sf7Texture6updateERKNS_5ImageE @302
    _ZN2sf7Texture6updateERKNS_5ImageEjj @303
    _ZN2sf7Texture6updateERKNS_6WindowE @304
    _ZN2sf7Texture6updateERKNS_6WindowEjj @305
    _ZN2sf7Texture6updateERKS0_ @306
    _ZN2sf7Texture6updateERKS0_jj @307
    _ZN2sf7Texture7setSrgbEb @308
    _ZN2sf7Texture9setSmoothEb @309
    _ZN2sf7TextureC1ERKS0_ @310
    _ZN2sf7TextureC1Ev @311
    _ZN2sf7TextureC2ERKS0_ @312
    _ZN2sf7TextureC2Ev @313
    _ZN2sf7TextureD1Ev @314
    _ZN2sf7TextureD2Ev @315
    _ZN2sf7TextureaSERKS0_ @316
    _ZN2sf8BlendAddE @317 DATA
    _ZN2sf9BlendModeC1ENS0_6FactorES1_NS0_8EquationE @318
    _ZN2sf9BlendModeC1ENS0_6FactorES1_NS0_8EquationES1_S1_S2_ @319
    _ZN2sf9BlendModeC1Ev @320
    _ZN2sf9BlendModeC2ENS0_6FactorES1_NS0_8EquationE @321
    _ZN2sf9BlendModeC2ENS0_6FactorES1_NS0_8EquationES1_S1_S2_ @322
    _ZN2sf9BlendModeC2Ev @323
    _ZN2sf9BlendNoneE @324 DATA
    _ZN2sf9Transform5scaleERKNS_7Vector2IfEE @325
    _ZN2sf9Transform5scaleERKNS_7Vector2IfEES4_ @326
    _ZN2sf9Transform5scaleEff @327
    _ZN2sf9Transform5scaleEffff @328
    _ZN2sf9Transform6rotateEf @329
    _ZN2sf9Transform6rotateEfRKNS_7Vector2IfEE @330
    _ZN2sf9Transform6rotateEfff @331
    _ZN2sf9Transform7combineERKS0_ @332
    _ZN2sf9Transform8IdentityE @333 DATA
    _ZN2sf9Transform9translateERKNS_7Vector2IfEE @334
    _ZN2sf9Transform9translateEff @335
    _ZN2sf9TransformC1Efffffffff @336
    _ZN2sf9TransformC1Ev @337
    _ZN2sf9TransformC2Efffffffff @338
    _ZN2sf9TransformC2Ev @339
    _ZN2sfeqERKNS_5ColorES2_ @340
    _ZN2sfeqERKNS_9BlendModeES2_ @341
    _ZN2sfeqERKNS_9TransformES2_ @342
    _ZN2sfmIERNS_5ColorERKS0_ @343
    _ZN2sfmLERNS_5ColorERKS0_ @344
    _ZN2sfmLERNS_9TransformERKS0_ @345
    _ZN2sfmiERKNS_5ColorES2_ @346
    _ZN2sfmlERKNS_5ColorES2_ @347
    _ZN2sfmlERKNS_9TransformERKNS_7Vector2IfEE @348
    _ZN2sfmlERKNS_9TransformES2_ @349
    _ZN2sfneERKNS_5ColorES2_ @350
    _ZN2sfneERKNS_9BlendModeES2_ @351
    _ZN2sfneERKNS_9TransformES2_ @352
    _ZN2sfpLERNS_5ColorERKS0_ @353
    _ZN2sfplERKNS_5ColorES2_ @354
    _ZNK2sf11CircleShape13getPointCountEv @355
    _ZNK2sf11CircleShape8getPointEy @356
    _ZNK2sf11CircleShape9getRadiusEv @357
    _ZNK2sf11ConvexShape13getPointCountEv @358
    _ZNK2sf11ConvexShape8getPointEy @359
    _ZNK2sf11VertexArray14getVertexCountEv @360
    _ZNK2sf11VertexArray16getPrimitiveTypeEv @361
    _ZNK2sf11VertexArray4drawERNS_12RenderTargetENS_12RenderStatesE @362
    _ZNK2sf11VertexArray9getBoundsEv @363
    _ZNK2sf11VertexArrayixEy @364
    _ZNK2sf12RenderTarget11getViewportERKNS_4ViewE @365
    _ZNK2sf12RenderTarget14getDefaultViewEv @366
    _ZNK2sf12RenderTarget16mapCoordsToPixelERKNS_7Vector2IfEE @367
    _ZNK2sf12RenderTarget16mapCoordsToPixelERKNS_7Vector2IfEERKNS_4ViewE @368
    _ZNK2sf12RenderTarget16mapPixelToCoordsERKNS_7Vector2IiEE @369
    _ZNK2sf12RenderTarget16mapPixelToCoordsERKNS_7Vector2IiEERKNS_4ViewE @370
    _ZNK2sf12RenderTarget7getViewEv @371
    _ZNK2sf12RenderWindow7captureEv @372
    _ZNK2sf12RenderWindow7getSizeEv @373
    _ZNK2sf12VertexBuffer14getVertexCountEv @374
    _ZNK2sf12VertexBuffer15getNativeHandleEv @375
    _ZNK2sf12VertexBuffer16getPrimitiveTypeEv @376
    _ZNK2sf12VertexBuffer4drawERNS_12RenderTargetENS_12RenderStatesE @377
    _ZNK2sf12VertexBuffer8getUsageEv @378
    _ZNK2sf13RenderTexture10getTextureEv @379
    _ZNK2sf13RenderTexture10isRepeatedEv @380
    _ZNK2sf13RenderTexture7getSizeEv @381
    _ZNK2sf13RenderTexture8isSmoothEv @382
    _ZNK2sf13Transformable11getPositionEv @383
    _ZNK2sf13Transformable11getRotationEv @384
    _ZNK2sf13Transformable12getTransformEv @385
    _ZNK2sf13Transformable19getInverseTransformEv @386
    _ZNK2sf13Transformable8getScaleEv @387
    _ZNK2sf13Transformable9getOriginEv @388
    _ZNK2sf14RectangleShape13getPointCountEv @389
    _ZNK2sf14RectangleShape7getSizeEv @390
    _ZNK2sf14RectangleShape8getPointEy @391
    _ZNK2sf4Font10getKerningEjjj @392
    _ZNK2sf4Font10getTextureEj @393
    _ZNK2sf4Font13findGlyphRectERNS0_4PageEjj @394
    _ZNK2sf4Font14getLineSpacingEj @395
    _ZNK2sf4Font14setCurrentSizeEj @396
    _ZNK2sf4Font20getUnderlinePositionEj @397
    _ZNK2sf4Font21getUnderlineThicknessEj @398
    _ZNK2sf4Font7getInfoEv @399
    _ZNK2sf4Font8getGlyphEjjbf @400
    _ZNK2sf4Font9loadGlyphEjjbf @401
    _ZNK2sf4Text12getFillColorEv @402
    _ZNK2sf4Text14getLineSpacingEv @403
    _ZNK2sf4Text14getLocalBoundsEv @404
    _ZNK2sf4Text15getGlobalBoundsEv @405
    _ZNK2sf4Text15getOutlineColorEv @406
    _ZNK2sf4Text16findCharacterPosEy @407
    _ZNK2sf4Text16getCharacterSizeEv @408
    _ZNK2sf4Text16getLetterSpacingEv @409
    _ZNK2sf4Text19getOutlineThicknessEv @410
    _ZNK2sf4Text20ensureGeometryUpdateEv @411
    _ZNK2sf4Text4drawERNS_12RenderTargetENS_12RenderStatesE @412
    _ZNK2sf4Text7getFontEv @413
    _ZNK2sf4Text8getColorEv @414
    _ZNK2sf4Text8getStyleEv @415
    _ZNK2sf4Text9getStringEv @416
    _ZNK2sf4View11getRotationEv @417
    _ZNK2sf4View11getViewportEv @418
    _ZNK2sf4View12getTransformEv @419
    _ZNK2sf4View19getInverseTransformEv @420
    _ZNK2sf4View7getSizeEv @421
    _ZNK2sf4View9getCenterEv @422
    _ZNK2sf5Color9toIntegerEv @423
    _ZNK2sf5Image10saveToFileERKNSt7__cxx1112basic_stringIcSt11char_traitsIcESaIcEEE @424
    _ZNK2sf5Image12getPixelsPtrEv @425
    _ZNK2sf5Image7getSizeEv @426
    _ZNK2sf5Image8getPixelEjj @427
    _ZNK2sf5Shape10getTextureEv @428
    _ZNK2sf5Shape12getFillColorEv @429
    _ZNK2sf5Shape14getLocalBoundsEv @430
    _ZNK2sf5Shape14getTextureRectEv @431
    _ZNK2sf5Shape15getGlobalBoundsEv @432
    _ZNK2sf5Shape15getOutlineColorEv @433
    _ZNK2sf5Shape19getOutlineThicknessEv @434
    _ZNK2sf5Shape4drawERNS_12RenderTargetENS_12RenderStatesE @435
    _ZNK2sf6Shader12bindTexturesEv @436
    _ZNK2sf6Shader15getNativeHandleEv @437
    _ZNK2sf6Sprite10getTextureEv @438
    _ZNK2sf6Sprite14getLocalBoundsEv @439
    _ZNK2sf6Sprite14getTextureRectEv @440
    _ZNK2sf6Sprite15getGlobalBoundsEv @441
    _ZNK2sf6Sprite4drawERNS_12RenderTargetENS_12RenderStatesE @442
    _ZNK2sf6Sprite8getColorEv @443
    _ZNK2sf7Texture10isRepeatedEv @444
    _ZNK2sf7Texture11copyToImageEv @445
    _ZNK2sf7Texture15getNativeHandleEv @446
    _ZNK2sf7Texture6isSrgbEv @447
    _ZNK2sf7Texture7getSizeEv @448
    _ZNK2sf7Texture8isSmoothEv @449
    _ZNK2sf9Transform10getInverseEv @450
    _ZNK2sf9Transform13transformRectERKNS_4RectIfEE @451
    _ZNK2sf9Transform14transformPointERKNS_7Vector2IfEE @452
    _ZNK2sf9Transform14transformPointEff @453
    _ZNK2sf9Transform9getMatrixEv @454
    _ZTIN2sf11CircleShapeE @455 DATA
    _ZTIN2sf11ConvexShapeE @456 DATA
    _ZTIN2sf11VertexArrayE @457 DATA
    _ZTIN2sf12RenderTargetE @458 DATA
    _ZTIN2sf12RenderWindowE @459 DATA
    _ZTIN2sf12VertexBufferE @460 DATA
    _ZTIN2sf13RenderTextureE @461 DATA
    _ZTIN2sf13TransformableE @462 DATA
    _ZTIN2sf14RectangleShapeE @463 DATA
    _ZTIN2sf4TextE @464 DATA
    _ZTIN2sf5ShapeE @465 DATA
    _ZTIN2sf6SpriteE @466 DATA
    _ZTIN2sf8DrawableE @467 DATA
    _ZTVN2sf11CircleShapeE @468 DATA
    _ZTVN2sf11ConvexShapeE @469 DATA
    _ZTVN2sf11VertexArrayE @470 DATA
    _ZTVN2sf12RenderTargetE @471 DATA
    _ZTVN2sf12RenderWindowE @472 DATA
    _ZTVN2sf12VertexBufferE @473 DATA
    _ZTVN2sf13RenderTextureE @474 DATA
    _ZTVN2sf13TransformableE @475 DATA
    _ZTVN2sf14RectangleShapeE @476 DATA
    _ZTVN2sf4TextE @477 DATA
    _ZTVN2sf5ShapeE @478 DATA
    _ZTVN2sf6SpriteE @479 DATA
    _ZTVN2sf8DrawableE @480 DATA
    _ZThn48_N2sf12RenderWindow9setActiveEb @481
    _ZThn48_N2sf12RenderWindowD0Ev @482
    _ZThn48_N2sf12RenderWindowD1Ev @483
    _ZThn48_NK2sf12RenderWindow7getSizeEv @484
    _ZThn8_N2sf11CircleShapeD0Ev @485
    _ZThn8_N2sf11CircleShapeD1Ev @486
    _ZThn8_N2sf11ConvexShapeD0Ev @487
    _ZThn8_N2sf11ConvexShapeD1Ev @488
    _ZThn8_N2sf14RectangleShapeD0Ev @489
    _ZThn8_N2sf14RectangleShapeD1Ev @490
    _ZThn8_N2sf4TextD0Ev @491
    _ZThn8_N2sf4TextD1Ev @492
    _ZThn8_N2sf5ShapeD0Ev @493
    _ZThn8_N2sf5ShapeD1Ev @494
    _ZThn8_N2sf6SpriteD0Ev @495
    _ZThn8_N2sf6SpriteD1Ev @496
